; Function Attrs: mustprogress uwtable
define hidden noundef nonnull align 8 dereferenceable(8) ptr @_ZNK3euf6solver25display_justification_ptrERSoPm(ptr noundef nonnull align 8 dereferenceable(9136) %this, ptr noundef nonnull align 8 dereferenceable(8) %out, ptr noundef %j) local_unnamed_addr #3 align 2 {
entry:
  %0 = ptrtoint ptr %j to i64
  %and.i = and i64 %0, 7
  %cmp.i = icmp eq i64 %and.i, 1
  br i1 %cmp.i, label %if.then, label %if.else

if.then:                                          ; preds = %entry
  %call2 = tail call noundef nonnull align 8 dereferenceable(8) ptr @_ZStlsISt11char_traitsIcEERSt13basic_ostreamIcT_ES5_PKc(ptr noundef nonnull align 8 dereferenceable(8) %out, ptr noundef nonnull @.str.22)
  %1 = trunc i64 %0 to i32
  %.b = load i1, ptr @_ZN3satL12null_literalE.0, align 4
  %cmp.i.i5 = icmp ugt i32 %1, 15
  %cmp.i.i.not = or i1 %cmp.i.i5, %.b
  br i1 %cmp.i.i.not, label %if.else.i, label %if.then.i

if.then.i:                                        ; preds = %if.then
  %call1.i = tail call noundef nonnull align 8 dereferenceable(8) ptr @_ZStlsISt11char_traitsIcEERSt13basic_ostreamIcT_ES5_PKc(ptr noundef nonnull align 8 dereferenceable(8) %call2, ptr noundef nonnull @.str.41)
  br label %return

if.else.i:                                        ; preds = %if.then
  %2 = and i32 %1, 16
  %tobool.i.not.i = icmp eq i32 %2, 0
  %cond.i = select i1 %tobool.i.not.i, ptr @.str.19, ptr @.str.43
  %call3.i = tail call noundef nonnull align 8 dereferenceable(8) ptr @_ZStlsISt11char_traitsIcEERSt13basic_ostreamIcT_ES5_PKc(ptr noundef nonnull align 8 dereferenceable(8) %call2, ptr noundef nonnull %cond.i)
  %shr.i.i = lshr i32 %1, 5
  %call5.i = tail call noundef nonnull align 8 dereferenceable(8) ptr @_ZNSolsEj(ptr noundef nonnull align 8 dereferenceable(8) %call3.i, i32 noundef %shr.i.i)
  br label %return

if.else:                                          ; preds = %entry
  %and.i4 = and i64 %0, -8
  %vtable = load ptr, ptr %this, align 8
  %vfn = getelementptr inbounds i8, ptr %vtable, i64 232
  %3 = load ptr, ptr %vfn, align 8
  %call7 = tail call noundef nonnull align 8 dereferenceable(8) ptr %3(ptr noundef nonnull align 8 dereferenceable(9136) %this, ptr noundef nonnull align 8 dereferenceable(8) %out, i64 noundef %and.i4)
  br label %return

return:                                           ; preds = %if.else.i, %if.then.i, %if.else
  %retval.0 = phi ptr [ %call7, %if.else ], [ %call2, %if.then.i ], [ %call2, %if.else.i ]
  ret ptr %retval.0
}